target datalayout = "e-m:e-p270:32:32-p271:32:32-p272:64:64-i64:64-i128:128-f80:128-n8:16:32:64-S128"
target triple = "x86_64-pc-linux-gnu"

%"class.cv::Mat" = type { i32, i32, i32, i32, ptr, ptr, ptr, ptr, ptr, ptr, %"struct.cv::MatSize", %"struct.cv::MatStep" }
%"struct.cv::MatSize" = type { ptr }
%"struct.cv::MatStep" = type { ptr, [2 x i64] }
%"class.cv::face::FacemarkLBF::BBox" = type { double, double, double, double, double, double, double, double }

; Function Attrs: inlinehint mustprogress nounwind uwtable
define linkonce_odr hidden noundef nonnull align 8 dereferenceable(8) ptr @_ZN2cv3Mat2atIdEERT_ii(ptr noundef nonnull align 8 dereferenceable(96) %0, i32 noundef %1, i32 noundef %2) #6 comdat align 2 {
  %4 = alloca ptr, align 8
  %5 = alloca i32, align 4
  %6 = alloca i32, align 4
  store ptr %0, ptr %4, align 8, !tbaa !159
  store i32 %1, ptr %5, align 4, !tbaa !37
  store i32 %2, ptr %6, align 4, !tbaa !37
  %7 = load ptr, ptr %4, align 8
  %8 = getelementptr inbounds nuw %"class.cv::Mat", ptr %7, i32 0, i32 4
  %9 = load ptr, ptr %8, align 8, !tbaa !167
  %10 = getelementptr inbounds nuw %"class.cv::Mat", ptr %7, i32 0, i32 11
  %11 = getelementptr inbounds nuw %"struct.cv::MatStep", ptr %10, i32 0, i32 0
  %12 = load ptr, ptr %11, align 8, !tbaa !264
  %13 = getelementptr inbounds i64, ptr %12, i64 0
  %14 = load i64, ptr %13, align 8, !tbaa !65
  %15 = load i32, ptr %5, align 4, !tbaa !37
  %16 = sext i32 %15 to i64
  %17 = mul i64 %14, %16
  %18 = getelementptr inbounds nuw i8, ptr %9, i64 %17
  %19 = load i32, ptr %6, align 4, !tbaa !37
  %20 = sext i32 %19 to i64
  %21 = getelementptr inbounds double, ptr %18, i64 %20
  ret ptr %21
}

; Function Attrs: inlinehint mustprogress nounwind uwtable
define linkonce_odr hidden noundef nonnull align 8 dereferenceable(8) ptr @_ZNK2cv3Mat2atIdEERKT_ii(ptr noundef nonnull align 8 dereferenceable(96) %0, i32 noundef %1, i32 noundef %2) #6 comdat align 2 {
  %4 = alloca ptr, align 8
  %5 = alloca i32, align 4
  %6 = alloca i32, align 4
  store ptr %0, ptr %4, align 8, !tbaa !159
  store i32 %1, ptr %5, align 4, !tbaa !37
  store i32 %2, ptr %6, align 4, !tbaa !37
  %7 = load ptr, ptr %4, align 8
  %8 = getelementptr inbounds nuw %"class.cv::Mat", ptr %7, i32 0, i32 4
  %9 = load ptr, ptr %8, align 8, !tbaa !167
  %10 = getelementptr inbounds nuw %"class.cv::Mat", ptr %7, i32 0, i32 11
  %11 = getelementptr inbounds nuw %"struct.cv::MatStep", ptr %10, i32 0, i32 0
  %12 = load ptr, ptr %11, align 8, !tbaa !264
  %13 = getelementptr inbounds i64, ptr %12, i64 0
  %14 = load i64, ptr %13, align 8, !tbaa !65
  %15 = load i32, ptr %5, align 4, !tbaa !37
  %16 = sext i32 %15 to i64
  %17 = mul i64 %14, %16
  %18 = getelementptr inbounds nuw i8, ptr %9, i64 %17
  %19 = load i32, ptr %6, align 4, !tbaa !37
  %20 = sext i32 %19 to i64
  %21 = getelementptr inbounds double, ptr %18, i64 %20
  ret ptr %21
}

; Function Attrs: mustprogress uwtable
define void @_ZNK2cv4face11FacemarkLBF4BBox7projectERKNS_3MatE(ptr dead_on_unwind noalias writable sret(%"class.cv::Mat") align 8 %0, ptr noundef nonnull align 8 dereferenceable(64) %1, ptr noundef nonnull align 8 dereferenceable(96) %2) #4 align 2 personality ptr @__gxx_personality_v0 {
  %4 = alloca ptr, align 8
  %5 = alloca ptr, align 8
  %6 = alloca ptr, align 8
  %7 = alloca i1, align 1
  %8 = alloca i32, align 4
  %9 = alloca ptr, align 8
  %10 = alloca i32, align 4
  store ptr %0, ptr %4, align 8
  store ptr %1, ptr %5, align 8, !tbaa !225
  store ptr %2, ptr %6, align 8, !tbaa !159
  %11 = load ptr, ptr %5, align 8
  store i1 false, ptr %7, align 1
  %12 = load ptr, ptr %6, align 8, !tbaa !159
  %13 = getelementptr inbounds nuw %"class.cv::Mat", ptr %12, i32 0, i32 2
  %14 = load i32, ptr %13, align 8, !tbaa !165
  %15 = load ptr, ptr %6, align 8, !tbaa !159
  %16 = getelementptr inbounds nuw %"class.cv::Mat", ptr %15, i32 0, i32 3
  %17 = load i32, ptr %16, align 4, !tbaa !166
  call void @_ZN2cv3MatC1Eiii(ptr noundef nonnull align 8 dereferenceable(96) %0, i32 noundef %14, i32 noundef %17, i32 noundef 6)
  call void @llvm.lifetime.start.p0(i64 4, ptr %8) #3
  store i32 0, ptr %8, align 4, !tbaa !37
  br label %18

18:                                               ; preds = %54, %3
  %19 = load i32, ptr %8, align 4, !tbaa !37
  %20 = load ptr, ptr %6, align 8, !tbaa !159
  %21 = getelementptr inbounds nuw %"class.cv::Mat", ptr %20, i32 0, i32 2
  %22 = load i32, ptr %21, align 8, !tbaa !165
  %23 = icmp slt i32 %19, %22
  br i1 %23, label %25, label %24

24:                                               ; preds = %18
  call void @llvm.lifetime.end.p0(i64 4, ptr %8) #3
  br label %61

25:                                               ; preds = %18
  %26 = load ptr, ptr %6, align 8, !tbaa !159
  %27 = load i32, ptr %8, align 4, !tbaa !37
  %28 = invoke noundef nonnull align 8 dereferenceable(8) ptr @_ZNK2cv3Mat2atIdEERKT_ii(ptr noundef nonnull align 8 dereferenceable(96) %26, i32 noundef %27, i32 noundef 0)
          to label %29 unwind label %57

29:                                               ; preds = %25
  %30 = load double, ptr %28, align 8, !tbaa !191
  %31 = getelementptr inbounds nuw %"class.cv::face::FacemarkLBF::BBox", ptr %11, i32 0, i32 2
  %32 = load double, ptr %31, align 8, !tbaa !227
  %33 = fsub double %30, %32
  %34 = getelementptr inbounds nuw %"class.cv::face::FacemarkLBF::BBox", ptr %11, i32 0, i32 4
  %35 = load double, ptr %34, align 8, !tbaa !226
  %36 = fdiv double %33, %35
  %37 = load i32, ptr %8, align 4, !tbaa !37
  %38 = invoke noundef nonnull align 8 dereferenceable(8) ptr @_ZN2cv3Mat2atIdEERT_ii(ptr noundef nonnull align 8 dereferenceable(96) %0, i32 noundef %37, i32 noundef 0)
          to label %39 unwind label %57

39:                                               ; preds = %29
  store double %36, ptr %38, align 8, !tbaa !191
  %40 = load ptr, ptr %6, align 8, !tbaa !159
  %41 = load i32, ptr %8, align 4, !tbaa !37
  %42 = invoke noundef nonnull align 8 dereferenceable(8) ptr @_ZNK2cv3Mat2atIdEERKT_ii(ptr noundef nonnull align 8 dereferenceable(96) %40, i32 noundef %41, i32 noundef 1)
          to label %43 unwind label %57

43:                                               ; preds = %39
  %44 = load double, ptr %42, align 8, !tbaa !191
  %45 = getelementptr inbounds nuw %"class.cv::face::FacemarkLBF::BBox", ptr %11, i32 0, i32 3
  %46 = load double, ptr %45, align 8, !tbaa !229
  %47 = fsub double %44, %46
  %48 = getelementptr inbounds nuw %"class.cv::face::FacemarkLBF::BBox", ptr %11, i32 0, i32 5
  %49 = load double, ptr %48, align 8, !tbaa !228
  %50 = fdiv double %47, %49
  %51 = load i32, ptr %8, align 4, !tbaa !37
  %52 = invoke noundef nonnull align 8 dereferenceable(8) ptr @_ZN2cv3Mat2atIdEERT_ii(ptr noundef nonnull align 8 dereferenceable(96) %0, i32 noundef %51, i32 noundef 1)
          to label %53 unwind label %57

53:                                               ; preds = %43
  store double %50, ptr %52, align 8, !tbaa !191
  br label %54

54:                                               ; preds = %53
  %55 = load i32, ptr %8, align 4, !tbaa !37
  %56 = add nsw i32 %55, 1
  store i32 %56, ptr %8, align 4, !tbaa !37
  br label %18, !llvm.loop !231

57:                                               ; preds = %43, %39, %29, %25
  %58 = landingpad { ptr, i32 }
          cleanup
  %59 = extractvalue { ptr, i32 } %58, 0
  store ptr %59, ptr %9, align 8
  %60 = extractvalue { ptr, i32 } %58, 1
  store i32 %60, ptr %10, align 4
  call void @llvm.lifetime.end.p0(i64 4, ptr %8) #3
  call void @_ZN2cv3MatD1Ev(ptr noundef nonnull align 8 dereferenceable(96) %0) #3
  br label %65

61:                                               ; preds = %24
  store i1 true, ptr %7, align 1
  %62 = load i1, ptr %7, align 1
  br i1 %62, label %64, label %63

63:                                               ; preds = %61
  call void @_ZN2cv3MatD1Ev(ptr noundef nonnull align 8 dereferenceable(96) %0) #3
  br label %64

64:                                               ; preds = %63, %61
  ret void

65:                                               ; preds = %57
  %66 = load ptr, ptr %9, align 8
  %67 = load i32, ptr %10, align 4
  %68 = insertvalue { ptr, i32 } poison, ptr %66, 0
  %69 = insertvalue { ptr, i32 } %68, i32 %67, 1
  resume { ptr, i32 } %69
}