; Function Attrs: mustprogress uwtable
define void @_ZNK2cv4face11FacemarkLBF4BBox7projectERKNS_3MatE(ptr dead_on_unwind noalias nonnull writable sret(%"class.cv::Mat") align 8 %0, ptr noundef nonnull readonly align 8 captures(none) dereferenceable(64) %1, ptr noundef nonnull readonly align 8 captures(none) dereferenceable(96) %2) local_unnamed_addr #3 align 2 personality ptr @__gxx_personality_v0 {
  %4 = getelementptr inbounds nuw i8, ptr %2, i64 8
  %5 = load i32, ptr %4, align 8, !tbaa !146
  %6 = getelementptr inbounds nuw i8, ptr %2, i64 12
  %7 = load i32, ptr %6, align 4, !tbaa !147
  tail call void @_ZN2cv3MatC1Eiii(ptr noundef nonnull align 8 dereferenceable(96) %0, i32 noundef %5, i32 noundef %7, i32 noundef 6)
  %8 = load i32, ptr %4, align 8, !tbaa !146
  %9 = icmp sgt i32 %8, 0
  br i1 %9, label %.lr.ph, label %._crit_edge

.lr.ph:                                           ; preds = %3
  %10 = getelementptr inbounds nuw i8, ptr %2, i64 16
  %11 = load ptr, ptr %10, align 8, !tbaa !151
  %12 = getelementptr inbounds nuw i8, ptr %2, i64 72
  %13 = load ptr, ptr %12, align 8, !tbaa !216
  %14 = load i64, ptr %13, align 8, !tbaa !150
  %15 = getelementptr inbounds nuw i8, ptr %1, i64 16
  %16 = getelementptr inbounds nuw i8, ptr %1, i64 32
  %17 = getelementptr inbounds nuw i8, ptr %0, i64 16
  %18 = load ptr, ptr %17, align 8, !tbaa !151
  %19 = getelementptr inbounds nuw i8, ptr %0, i64 72
  %20 = load ptr, ptr %19, align 8, !tbaa !216
  %21 = load i64, ptr %20, align 8, !tbaa !150
  %22 = getelementptr inbounds nuw i8, ptr %1, i64 24
  %23 = getelementptr inbounds nuw i8, ptr %1, i64 40
  %wide.trip.count = zext nneg i32 %8 to i64
  br label %24

24:                                               ; preds = %.lr.ph, %24
  %indvars.iv = phi i64 [ 0, %.lr.ph ], [ %indvars.iv.next, %24 ]
  %25 = mul i64 %14, %indvars.iv
  %26 = getelementptr inbounds nuw i8, ptr %11, i64 %25
  %27 = load double, ptr %26, align 8, !tbaa !46
  %28 = load double, ptr %15, align 8, !tbaa !217
  %29 = fsub double %27, %28
  %30 = load double, ptr %16, align 8, !tbaa !219
  %31 = fdiv double %29, %30
  %32 = mul i64 %21, %indvars.iv
  %33 = getelementptr inbounds nuw i8, ptr %18, i64 %32
  store double %31, ptr %33, align 8, !tbaa !46
  %34 = getelementptr inbounds nuw i8, ptr %26, i64 8
  %35 = load double, ptr %34, align 8, !tbaa !46
  %36 = load double, ptr %22, align 8, !tbaa !220
  %37 = fsub double %35, %36
  %38 = load double, ptr %23, align 8, !tbaa !221
  %39 = fdiv double %37, %38
  %40 = getelementptr inbounds nuw i8, ptr %33, i64 8
  store double %39, ptr %40, align 8, !tbaa !46
  %indvars.iv.next = add nuw nsw i64 %indvars.iv, 1
  %exitcond.not = icmp eq i64 %indvars.iv.next, %wide.trip.count
  br i1 %exitcond.not, label %._crit_edge, label %24, !llvm.loop !222

._crit_edge:                                      ; preds = %24, %3
  ret void
}